target datalayout = "e-m:e-p270:32:32-p271:32:32-p272:64:64-i64:64-i128:128-f80:128-n8:16:32:64-S128"
target triple = "x86_64-unknown-linux-gnu"

%struct.MACAddr = type { [6 x i8] }
%struct.of_dpa = type { ptr, ptr, ptr, i32, i32 }
%struct.of_dpa_flow = type { i32, i32, i32, i32, i64, %struct.of_dpa_flow_key, %struct.of_dpa_flow_key, %struct.of_dpa_flow_action, %struct.anon.13 }
%struct.of_dpa_flow_key = type { i32, i32, i32, %struct.anon, %struct.anon.0, %union.anon, i32 }
%struct.anon = type { i16, %struct.MACAddr, %struct.MACAddr, i16 }
%struct.anon.0 = type { i8, i8, i8, i8 }
%union.anon = type { %struct.anon.6 }
%struct.anon.6 = type { %struct.anon.7, i32, %struct.anon.9, %struct.anon.10 }
%struct.anon.7 = type { %struct.ipv6_addr, %struct.ipv6_addr }
%struct.ipv6_addr = type { %union.anon.8 }
%union.anon.8 = type { [4 x i32] }
%struct.anon.9 = type { i16, i16, i16 }
%struct.anon.10 = type { %struct.ipv6_addr, %struct.MACAddr, %struct.MACAddr }
%struct.of_dpa_flow_action = type { i32, %struct.anon.11, %struct.anon.12 }
%struct.anon.11 = type { i32, i32, i16 }
%struct.anon.12 = type { i16, i32, i8, i16 }
%struct.anon.13 = type { i64, i64, i64, i64, i64 }
%struct.of_dpa_flow_context = type { i32, i32, ptr, i32, %struct.eth_header, %struct.vlan_header, %struct.vlan_header, ptr, %struct.of_dpa_flow_pkt_fields, %struct.of_dpa_flow_action }
%struct.eth_header = type { [6 x i8], [6 x i8], i16 }
%struct.vlan_header = type { i16, i16 }
%struct.of_dpa_flow_pkt_fields = type { i32, ptr, ptr, ptr, ptr, ptr, ptr, ptr }
%struct.of_dpa_flow_match = type { %struct.of_dpa_flow_key, ptr }

@ff_mac = internal constant %struct.MACAddr { [6 x i8] c"\FF\FF\FF\FF\FF\FF" }, align 1
@.str.10 = private unnamed_addr constant [13 x i8] c"\0Anew search\0A\00", align 1

; Function Attrs: nounwind sspstrong uwtable
define internal i32 @DPRINTF(ptr noundef %fmt, ...) #0 {
entry:
  %fmt.addr = alloca ptr, align 8
  store ptr %fmt, ptr %fmt.addr, align 8
  ret i32 0
}

; Function Attrs: nounwind sspstrong uwtable
define internal ptr @of_dpa_flow_match(ptr noundef %of_dpa, ptr noundef %match) #0 {
entry:
  %of_dpa.addr = alloca ptr, align 8
  %match.addr = alloca ptr, align 8
  store ptr %of_dpa, ptr %of_dpa.addr, align 8
  store ptr %match, ptr %match.addr, align 8
  %call = call i32 (ptr, ...) @DPRINTF(ptr noundef @.str.10)
  %0 = load ptr, ptr %of_dpa.addr, align 8
  %flow_tbl = getelementptr inbounds %struct.of_dpa, ptr %0, i32 0, i32 1
  %1 = load ptr, ptr %flow_tbl, align 8
  %2 = load ptr, ptr %match.addr, align 8
  call void @g_hash_table_foreach(ptr noundef %1, ptr noundef @_of_dpa_flow_match, ptr noundef %2)
  %3 = load ptr, ptr %match.addr, align 8
  %best = getelementptr inbounds %struct.of_dpa_flow_match, ptr %3, i32 0, i32 1
  %4 = load ptr, ptr %best, align 8
  ret ptr %4
}

; Function Attrs: nounwind sspstrong uwtable
define internal i64 @qemu_clock_get_ms(i32 noundef %type) #0 {
entry:
  %type.addr = alloca i32, align 4
  store i32 %type, ptr %type.addr, align 4
  %0 = load i32, ptr %type.addr, align 4
  %call = call i64 @qemu_clock_get_ns(i32 noundef %0)
  %div = sdiv i64 %call, 1000000
  ret i64 %div
}

; Function Attrs: nounwind sspstrong uwtable
define internal void @of_dpa_bridging_learn(ptr noundef %fc, ptr noundef %dst_flow) #0 {
entry:
  %fc.addr = alloca ptr, align 8
  %dst_flow.addr = alloca ptr, align 8
  %match = alloca %struct.of_dpa_flow_match, align 8
  %flow = alloca ptr, align 8
  %addr = alloca ptr, align 8
  %vlan_id = alloca i16, align 2
  %now = alloca i64, align 8
  %refresh_delay = alloca i64, align 8
  store ptr %fc, ptr %fc.addr, align 8
  store ptr %dst_flow, ptr %dst_flow.addr, align 8
  call void @llvm.memset.p0.i64(ptr align 8 %match, i8 0, i64 120, i1 false)
  %call = call i64 @qemu_clock_get_ms(i32 noundef 1)
  %div = sdiv i64 %call, 1000
  store i64 %div, ptr %now, align 8
  store i64 1, ptr %refresh_delay, align 8
  %0 = load ptr, ptr %fc.addr, align 8
  %fields = getelementptr inbounds %struct.of_dpa_flow_context, ptr %0, i32 0, i32 8
  %ethhdr = getelementptr inbounds %struct.of_dpa_flow_pkt_fields, ptr %fields, i32 0, i32 1
  %1 = load ptr, ptr %ethhdr, align 8
  %h_source = getelementptr inbounds %struct.eth_header, ptr %1, i32 0, i32 1
  %arraydecay = getelementptr inbounds [6 x i8], ptr %h_source, i64 0, i64 0
  store ptr %arraydecay, ptr %addr, align 8
  %2 = load ptr, ptr %fc.addr, align 8
  %fields1 = getelementptr inbounds %struct.of_dpa_flow_context, ptr %2, i32 0, i32 8
  %vlanhdr = getelementptr inbounds %struct.of_dpa_flow_pkt_fields, ptr %fields1, i32 0, i32 3
  %3 = load ptr, ptr %vlanhdr, align 8
  %h_tci = getelementptr inbounds %struct.vlan_header, ptr %3, i32 0, i32 0
  %4 = load i16, ptr %h_tci, align 2
  store i16 %4, ptr %vlan_id, align 2
  %value = getelementptr inbounds %struct.of_dpa_flow_match, ptr %match, i32 0, i32 0
  %tbl_id = getelementptr inbounds %struct.of_dpa_flow_key, ptr %value, i32 0, i32 2
  store i32 50, ptr %tbl_id, align 8
  %5 = load i16, ptr %vlan_id, align 2
  %value2 = getelementptr inbounds %struct.of_dpa_flow_match, ptr %match, i32 0, i32 0
  %eth = getelementptr inbounds %struct.of_dpa_flow_key, ptr %value2, i32 0, i32 3
  %vlan_id3 = getelementptr inbounds %struct.anon, ptr %eth, i32 0, i32 0
  store i16 %5, ptr %vlan_id3, align 4
  %value4 = getelementptr inbounds %struct.of_dpa_flow_match, ptr %match, i32 0, i32 0
  %eth5 = getelementptr inbounds %struct.of_dpa_flow_key, ptr %value4, i32 0, i32 3
  %dst = getelementptr inbounds %struct.anon, ptr %eth5, i32 0, i32 2
  %a = getelementptr inbounds %struct.MACAddr, ptr %dst, i32 0, i32 0
  %arraydecay6 = getelementptr inbounds [6 x i8], ptr %a, i64 0, i64 0
  %6 = load ptr, ptr %addr, align 8
  call void @llvm.memcpy.p0.p0.i64(ptr align 4 %arraydecay6, ptr align 1 %6, i64 6, i1 false)
  %value7 = getelementptr inbounds %struct.of_dpa_flow_match, ptr %match, i32 0, i32 0
  %width = getelementptr inbounds %struct.of_dpa_flow_key, ptr %value7, i32 0, i32 6
  store i32 4, ptr %width, align 8
  %7 = load ptr, ptr %fc.addr, align 8
  %of_dpa = getelementptr inbounds %struct.of_dpa_flow_context, ptr %7, i32 0, i32 7
  %8 = load ptr, ptr %of_dpa, align 8
  %call8 = call ptr @of_dpa_flow_match(ptr noundef %8, ptr noundef %match)
  store ptr %call8, ptr %flow, align 8
  %9 = load ptr, ptr %flow, align 8
  %tobool = icmp ne ptr %9, null
  br i1 %tobool, label %if.then, label %if.end20

if.then:                                          ; preds = %entry
  %10 = load ptr, ptr %flow, align 8
  %mask = getelementptr inbounds %struct.of_dpa_flow, ptr %10, i32 0, i32 6
  %eth9 = getelementptr inbounds %struct.of_dpa_flow_key, ptr %mask, i32 0, i32 3
  %dst10 = getelementptr inbounds %struct.anon, ptr %eth9, i32 0, i32 2
  %a11 = getelementptr inbounds %struct.MACAddr, ptr %dst10, i32 0, i32 0
  %arraydecay12 = getelementptr inbounds [6 x i8], ptr %a11, i64 0, i64 0
  %call13 = call i32 @memcmp(ptr noundef %arraydecay12, ptr noundef @ff_mac, i64 noundef 6) #12
  %tobool14 = icmp ne i32 %call13, 0
  br i1 %tobool14, label %if.end19, label %if.then15

if.then15:                                        ; preds = %if.then
  %11 = load i64, ptr %now, align 8
  %12 = load ptr, ptr %flow, align 8
  %stats = getelementptr inbounds %struct.of_dpa_flow, ptr %12, i32 0, i32 8
  %refresh_time = getelementptr inbounds %struct.anon.13, ptr %stats, i32 0, i32 2
  %13 = load i64, ptr %refresh_time, align 8
  %sub = sub i64 %11, %13
  %14 = load i64, ptr %refresh_delay, align 8
  %cmp = icmp slt i64 %sub, %14
  br i1 %cmp, label %if.then16, label %if.end

if.then16:                                        ; preds = %if.then15
  br label %return

if.end:                                           ; preds = %if.then15
  %15 = load i64, ptr %now, align 8
  %16 = load ptr, ptr %flow, align 8
  %stats17 = getelementptr inbounds %struct.of_dpa_flow, ptr %16, i32 0, i32 8
  %refresh_time18 = getelementptr inbounds %struct.anon.13, ptr %stats17, i32 0, i32 2
  store i64 %15, ptr %refresh_time18, align 8
  br label %if.end19

if.end19:                                         ; preds = %if.end, %if.then
  br label %if.end20

if.end20:                                         ; preds = %if.end19, %entry
  %17 = load ptr, ptr %fc.addr, align 8
  %of_dpa21 = getelementptr inbounds %struct.of_dpa_flow_context, ptr %17, i32 0, i32 7
  %18 = load ptr, ptr %of_dpa21, align 8
  %world = getelementptr inbounds %struct.of_dpa, ptr %18, i32 0, i32 0
  %19 = load ptr, ptr %world, align 8
  %call22 = call ptr @world_rocker(ptr noundef %19)
  %20 = load ptr, ptr %fc.addr, align 8
  %in_pport = getelementptr inbounds %struct.of_dpa_flow_context, ptr %20, i32 0, i32 0
  %21 = load i32, ptr %in_pport, align 8
  %22 = load ptr, ptr %addr, align 8
  %23 = load i16, ptr %vlan_id, align 2
  %call23 = call i32 @rocker_event_mac_vlan_seen(ptr noundef %call22, i32 noundef %21, ptr noundef %22, i16 noundef zeroext %23)
  br label %return

return:                                           ; preds = %if.end20, %if.then16
  ret void
}