; Function Attrs: nounwind sspstrong uwtable
define internal void @of_dpa_bridging_learn(ptr noundef readonly captures(none) %fc, ptr readnone captures(none) %dst_flow) #0 {
entry:
  %match = alloca %struct.of_dpa_flow_match, align 8
  call void @llvm.memset.p0.i64(ptr noundef nonnull align 8 dereferenceable(120) %match, i8 0, i64 120, i1 false)
  %call.i = tail call i64 @qemu_clock_get_ns(i32 noundef 1) #18
  %div = sdiv i64 %call.i, 1000000000
  %ethhdr = getelementptr inbounds nuw i8, ptr %fc, i64 64
  %0 = load ptr, ptr %ethhdr, align 8
  %h_source = getelementptr inbounds nuw i8, ptr %0, i64 6
  %vlanhdr = getelementptr inbounds nuw i8, ptr %fc, i64 80
  %1 = load ptr, ptr %vlanhdr, align 8
  %2 = load i16, ptr %1, align 2
  %tbl_id = getelementptr inbounds nuw i8, ptr %match, i64 8
  store i32 50, ptr %tbl_id, align 8
  %eth = getelementptr inbounds nuw i8, ptr %match, i64 12
  store i16 %2, ptr %eth, align 4
  %dst = getelementptr inbounds nuw i8, ptr %match, i64 20
  call void @llvm.memcpy.p0.p0.i64(ptr noundef nonnull align 4 dereferenceable(6) %dst, ptr noundef nonnull align 1 dereferenceable(6) %h_source, i64 6, i1 false)
  %width = getelementptr inbounds nuw i8, ptr %match, i64 104
  store i32 4, ptr %width, align 8
  %of_dpa = getelementptr inbounds nuw i8, ptr %fc, i64 48
  %3 = load ptr, ptr %of_dpa, align 8
  %4 = getelementptr i8, ptr %3, i64 8
  %.val = load ptr, ptr %4, align 8
  call void @g_hash_table_foreach(ptr noundef %.val, ptr noundef nonnull @_of_dpa_flow_match, ptr noundef nonnull %match) #18
  %best.i = getelementptr inbounds nuw i8, ptr %match, i64 112
  %5 = load ptr, ptr %best.i, align 8
  %tobool.not = icmp eq ptr %5, null
  br i1 %tobool.not, label %if.end20, label %if.then

if.then:                                          ; preds = %entry
  %dst10 = getelementptr inbounds nuw i8, ptr %5, i64 152
  %bcmp = call i32 @bcmp(ptr noundef nonnull dereferenceable(6) %dst10, ptr noundef nonnull dereferenceable(6) @ff_mac, i64 6)
  %tobool14.not = icmp eq i32 %bcmp, 0
  br i1 %tobool14.not, label %if.then15, label %if.end20

if.then15:                                        ; preds = %if.then
  %refresh_time = getelementptr inbounds nuw i8, ptr %5, i64 288
  %6 = load i64, ptr %refresh_time, align 8
  %sub = sub i64 %div, %6
  %cmp = icmp slt i64 %sub, 1
  br i1 %cmp, label %return, label %if.end

if.end:                                           ; preds = %if.then15
  store i64 %div, ptr %refresh_time, align 8
  br label %if.end20

if.end20:                                         ; preds = %if.then, %if.end, %entry
  %7 = load ptr, ptr %of_dpa, align 8
  %8 = load ptr, ptr %7, align 8
  %call22 = call ptr @world_rocker(ptr noundef %8) #18
  %9 = load i32, ptr %fc, align 8
  %call23 = call i32 @rocker_event_mac_vlan_seen(ptr noundef %call22, i32 noundef %9, ptr noundef nonnull %h_source, i16 noundef zeroext %2) #18
  br label %return

return:                                           ; preds = %if.then15, %if.end20
  ret void
}